target datalayout = "e-m:e-p270:32:32-p271:32:32-p272:64:64-i64:64-i128:128-f80:128-n8:16:32:64-S128"
target triple = "x86_64-pc-linux-gnu"

%union.pthread_mutex_t = type { %struct.__pthread_mutex_s }
%struct.__pthread_mutex_s = type { i32, i32, i32, i32, i32, i16, i16, %struct.__pthread_internal_list }
%struct.__pthread_internal_list = type { ptr, ptr }
%struct.pmix_tma = type { ptr, ptr, ptr, ptr, ptr, ptr, ptr, ptr }
%struct.pmix_mca_base_var_enum_t = type { %struct.pmix_object_t, i8, ptr, ptr, ptr, ptr, ptr, ptr, i32, ptr }
%struct.pmix_object_t = type { %union.pthread_mutex_t, ptr, i32, %struct.pmix_tma }
%struct.pmix_mca_base_var_enum_value_t = type { i32, ptr }

@.str.16 = private unnamed_addr constant [12 x i8] c"%s%s%d:\22%s\22\00", align 1
@.str.17 = private unnamed_addr constant [1 x i8] zeroinitializer, align 1
@.str.18 = private unnamed_addr constant [3 x i8] c", \00", align 1

; Function Attrs: nounwind uwtable
define internal i32 @enum_dump(ptr noundef %0, ptr noundef %1) #0 {
  %3 = alloca i32, align 4
  %4 = alloca ptr, align 8
  %5 = alloca ptr, align 8
  %6 = alloca i32, align 4
  %7 = alloca ptr, align 8
  %8 = alloca i32, align 4
  %9 = alloca i32, align 4
  store ptr %0, ptr %4, align 8, !tbaa !3
  store ptr %1, ptr %5, align 8, !tbaa !47
  call void @llvm.lifetime.start.p0(i64 4, ptr %6) #13
  call void @llvm.lifetime.start.p0(i64 8, ptr %7) #13
  call void @llvm.lifetime.start.p0(i64 4, ptr %8) #13
  %10 = load ptr, ptr %5, align 8, !tbaa !47
  store ptr null, ptr %10, align 8, !tbaa !49
  %11 = load ptr, ptr %4, align 8, !tbaa !3
  %12 = icmp eq ptr null, %11
  br i1 %12, label %13, label %14

13:                                               ; preds = %2
  store i32 -1, ptr %3, align 4
  store i32 1, ptr %9, align 4
  br label %77

14:                                               ; preds = %2
  store ptr null, ptr %7, align 8, !tbaa !49
  store i32 0, ptr %6, align 4, !tbaa !24
  br label %15

15:                                               ; preds = %73, %14
  %16 = load i32, ptr %6, align 4, !tbaa !24
  %17 = load ptr, ptr %4, align 8, !tbaa !3
  %18 = getelementptr inbounds nuw %struct.pmix_mca_base_var_enum_t, ptr %17, i32 0, i32 8
  %19 = load i32, ptr %18, align 8, !tbaa !25
  %20 = icmp slt i32 %16, %19
  br i1 %20, label %21, label %31

21:                                               ; preds = %15
  %22 = load ptr, ptr %4, align 8, !tbaa !3
  %23 = getelementptr inbounds nuw %struct.pmix_mca_base_var_enum_t, ptr %22, i32 0, i32 9
  %24 = load ptr, ptr %23, align 8, !tbaa !23
  %25 = load i32, ptr %6, align 4, !tbaa !24
  %26 = sext i32 %25 to i64
  %27 = getelementptr inbounds %struct.pmix_mca_base_var_enum_value_t, ptr %24, i64 %26
  %28 = getelementptr inbounds nuw %struct.pmix_mca_base_var_enum_value_t, ptr %27, i32 0, i32 1
  %29 = load ptr, ptr %28, align 8, !tbaa !26
  %30 = icmp ne ptr %29, null
  br label %31

31:                                               ; preds = %21, %15
  %32 = phi i1 [ false, %15 ], [ %30, %21 ]
  br i1 %32, label %33, label %76

33:                                               ; preds = %31
  %34 = load ptr, ptr %5, align 8, !tbaa !47
  %35 = load ptr, ptr %7, align 8, !tbaa !49
  %36 = icmp ne ptr %35, null
  br i1 %36, label %37, label %39

37:                                               ; preds = %33
  %38 = load ptr, ptr %7, align 8, !tbaa !49
  br label %40

39:                                               ; preds = %33
  br label %40

40:                                               ; preds = %39, %37
  %41 = phi ptr [ %38, %37 ], [ @.str.17, %39 ]
  %42 = load ptr, ptr %7, align 8, !tbaa !49
  %43 = icmp ne ptr %42, null
  %44 = select i1 %43, ptr @.str.18, ptr @.str.17
  %45 = load ptr, ptr %4, align 8, !tbaa !3
  %46 = getelementptr inbounds nuw %struct.pmix_mca_base_var_enum_t, ptr %45, i32 0, i32 9
  %47 = load ptr, ptr %46, align 8, !tbaa !23
  %48 = load i32, ptr %6, align 4, !tbaa !24
  %49 = sext i32 %48 to i64
  %50 = getelementptr inbounds %struct.pmix_mca_base_var_enum_value_t, ptr %47, i64 %49
  %51 = getelementptr inbounds nuw %struct.pmix_mca_base_var_enum_value_t, ptr %50, i32 0, i32 0
  %52 = load i32, ptr %51, align 8, !tbaa !51
  %53 = load ptr, ptr %4, align 8, !tbaa !3
  %54 = getelementptr inbounds nuw %struct.pmix_mca_base_var_enum_t, ptr %53, i32 0, i32 9
  %55 = load ptr, ptr %54, align 8, !tbaa !23
  %56 = load i32, ptr %6, align 4, !tbaa !24
  %57 = sext i32 %56 to i64
  %58 = getelementptr inbounds %struct.pmix_mca_base_var_enum_value_t, ptr %55, i64 %57
  %59 = getelementptr inbounds nuw %struct.pmix_mca_base_var_enum_value_t, ptr %58, i32 0, i32 1
  %60 = load ptr, ptr %59, align 8, !tbaa !26
  %61 = call i32 (ptr, ptr, ...) @asprintf(ptr noundef %34, ptr noundef @.str.16, ptr noundef %41, ptr noundef %44, i32 noundef %52, ptr noundef %60) #13
  store i32 %61, ptr %8, align 4, !tbaa !24
  %62 = load ptr, ptr %7, align 8, !tbaa !49
  %63 = icmp ne ptr %62, null
  br i1 %63, label %64, label %66

64:                                               ; preds = %40
  %65 = load ptr, ptr %7, align 8, !tbaa !49
  call void @free(ptr noundef %65) #13
  br label %66

66:                                               ; preds = %64, %40
  %67 = load i32, ptr %8, align 4, !tbaa !24
  %68 = icmp sgt i32 0, %67
  br i1 %68, label %69, label %70

69:                                               ; preds = %66
  store i32 -29, ptr %3, align 4
  store i32 1, ptr %9, align 4
  br label %77

70:                                               ; preds = %66
  %71 = load ptr, ptr %5, align 8, !tbaa !47
  %72 = load ptr, ptr %71, align 8, !tbaa !49
  store ptr %72, ptr %7, align 8, !tbaa !49
  br label %73

73:                                               ; preds = %70
  %74 = load i32, ptr %6, align 4, !tbaa !24
  %75 = add nsw i32 %74, 1
  store i32 %75, ptr %6, align 4, !tbaa !24
  br label %15, !llvm.loop !90

76:                                               ; preds = %31
  store i32 0, ptr %3, align 4
  store i32 1, ptr %9, align 4
  br label %77

77:                                               ; preds = %76, %69, %13
  call void @llvm.lifetime.end.p0(i64 4, ptr %8) #13
  call void @llvm.lifetime.end.p0(i64 8, ptr %7) #13
  call void @llvm.lifetime.end.p0(i64 4, ptr %6) #13
  %78 = load i32, ptr %3, align 4
  ret i32 %78
}