; Function Attrs: nounwind uwtable
define internal range(i32 -29, 1) i32 @enum_dump(ptr noundef readonly captures(address_is_null) %0, ptr noundef initializes((0, 8)) %1) #1 {
  store ptr null, ptr %1, align 8, !tbaa !41
  %3 = icmp eq ptr %0, null
  br i1 %3, label %.critedge, label %.preheader

.preheader:                                       ; preds = %2
  %4 = getelementptr inbounds nuw i8, ptr %0, i64 184
  %5 = getelementptr inbounds nuw i8, ptr %0, i64 176
  %6 = load i32, ptr %5, align 8, !tbaa !22
  %7 = icmp sgt i32 %6, 0
  br i1 %7, label %.lr.ph, label %.critedge

.lr.ph:                                           ; preds = %.preheader, %20
  %indvars.iv = phi i64 [ %indvars.iv.next, %20 ], [ 0, %.preheader ]
  %.01925 = phi ptr [ %21, %20 ], [ null, %.preheader ]
  %8 = load ptr, ptr %4, align 8, !tbaa !21
  %9 = getelementptr inbounds nuw %struct.pmix_mca_base_var_enum_value_t, ptr %8, i64 %indvars.iv
  %10 = getelementptr inbounds nuw i8, ptr %9, i64 8
  %11 = load ptr, ptr %10, align 8, !tbaa !23
  %.not = icmp eq ptr %11, null
  br i1 %.not, label %.critedge, label %12

12:                                               ; preds = %.lr.ph
  %.not23 = icmp eq ptr %.01925, null
  %13 = select i1 %.not23, ptr @.str.17, ptr %.01925
  %14 = select i1 %.not23, ptr @.str.17, ptr @.str.18
  %15 = load i32, ptr %9, align 8, !tbaa !43
  %16 = tail call i32 (ptr, ptr, ...) @asprintf(ptr noundef nonnull %1, ptr noundef nonnull @.str.16, ptr noundef nonnull %13, ptr noundef nonnull %14, i32 noundef %15, ptr noundef nonnull %11) #21
  br i1 %.not23, label %18, label %17

17:                                               ; preds = %12
  tail call void @free(ptr noundef nonnull %.01925) #21
  br label %18

18:                                               ; preds = %17, %12
  %19 = icmp slt i32 %16, 0
  br i1 %19, label %.critedge, label %20

20:                                               ; preds = %18
  %21 = load ptr, ptr %1, align 8, !tbaa !41
  %indvars.iv.next = add nuw nsw i64 %indvars.iv, 1
  %22 = load i32, ptr %5, align 8, !tbaa !22
  %23 = sext i32 %22 to i64
  %24 = icmp slt i64 %indvars.iv.next, %23
  br i1 %24, label %.lr.ph, label %.critedge, !llvm.loop !46

.critedge:                                        ; preds = %18, %20, %.lr.ph, %.preheader, %2
  %.0 = phi i32 [ -1, %2 ], [ 0, %.preheader ], [ -29, %18 ], [ 0, %20 ], [ 0, %.lr.ph ]
  ret i32 %.0
}